
uart.elf:     file format elf32-littleriscv


Disassembly of section .text:

10000000 <_ftext>:
10000000:	0b00006f          	j	100000b0 <crt_init>
10000004:	00000013          	nop
10000008:	00000013          	nop
1000000c:	00000013          	nop
10000010:	00000013          	nop
10000014:	00000013          	nop
10000018:	00000013          	nop
1000001c:	00000013          	nop

10000020 <trap_entry>:
10000020:	fe112e23          	sw	ra,-4(sp)
10000024:	fe512c23          	sw	t0,-8(sp)
10000028:	fe612a23          	sw	t1,-12(sp)
1000002c:	fe712823          	sw	t2,-16(sp)
10000030:	fea12623          	sw	a0,-20(sp)
10000034:	feb12423          	sw	a1,-24(sp)
10000038:	fec12223          	sw	a2,-28(sp)
1000003c:	fed12023          	sw	a3,-32(sp)
10000040:	fce12e23          	sw	a4,-36(sp)
10000044:	fcf12c23          	sw	a5,-40(sp)
10000048:	fd012a23          	sw	a6,-44(sp)
1000004c:	fd112823          	sw	a7,-48(sp)
10000050:	fdc12623          	sw	t3,-52(sp)
10000054:	fdd12423          	sw	t4,-56(sp)
10000058:	fde12223          	sw	t5,-60(sp)
1000005c:	fdf12023          	sw	t6,-64(sp)
10000060:	fc010113          	addi	sp,sp,-64
10000064:	110000ef          	jal	ra,10000174 <isr>
10000068:	03c12083          	lw	ra,60(sp)
1000006c:	03812283          	lw	t0,56(sp)
10000070:	03412303          	lw	t1,52(sp)
10000074:	03012383          	lw	t2,48(sp)
10000078:	02c12503          	lw	a0,44(sp)
1000007c:	02812583          	lw	a1,40(sp)
10000080:	02412603          	lw	a2,36(sp)
10000084:	02012683          	lw	a3,32(sp)
10000088:	01c12703          	lw	a4,28(sp)
1000008c:	01812783          	lw	a5,24(sp)
10000090:	01412803          	lw	a6,20(sp)
10000094:	01012883          	lw	a7,16(sp)
10000098:	00c12e03          	lw	t3,12(sp)
1000009c:	00812e83          	lw	t4,8(sp)
100000a0:	00412f03          	lw	t5,4(sp)
100000a4:	00012f83          	lw	t6,0(sp)
100000a8:	04010113          	addi	sp,sp,64
100000ac:	30200073          	mret

100000b0 <crt_init>:
100000b0:	40000113          	li	sp,1024
100000b4:	00000517          	auipc	a0,0x0
100000b8:	f6c50513          	addi	a0,a0,-148 # 10000020 <trap_entry>
100000bc:	30551073          	csrw	mtvec,a0

100000c0 <data_init>:
100000c0:	00000513          	li	a0,0
100000c4:	0f800593          	li	a1,248
100000c8:	00001617          	auipc	a2,0x1
100000cc:	b3860613          	addi	a2,a2,-1224 # 10000c00 <_erodata>

100000d0 <data_loop>:
100000d0:	00b50c63          	beq	a0,a1,100000e8 <bss_init>
100000d4:	00062683          	lw	a3,0(a2)
100000d8:	00d52023          	sw	a3,0(a0)
100000dc:	00450513          	addi	a0,a0,4
100000e0:	00460613          	addi	a2,a2,4
100000e4:	fedff06f          	j	100000d0 <data_loop>

100000e8 <bss_init>:
100000e8:	10000513          	li	a0,256
100000ec:	10800593          	li	a1,264

100000f0 <bss_loop>:
100000f0:	00b50863          	beq	a0,a1,10000100 <bss_done>
100000f4:	00052023          	sw	zero,0(a0)
100000f8:	00450513          	addi	a0,a0,4
100000fc:	ff5ff06f          	j	100000f0 <bss_loop>

10000100 <bss_done>:
10000100:	00001537          	lui	a0,0x1
10000104:	88050513          	addi	a0,a0,-1920 # 880 <_fstack+0x480>
10000108:	30451073          	csrw	mie,a0
1000010c:	0dd000ef          	jal	ra,100009e8 <main>

10000110 <infinit_loop>:
10000110:	0000006f          	j	10000110 <infinit_loop>

10000114 <flush_cpu_icache>:
10000114:	ff010113          	addi	sp,sp,-16
10000118:	00812623          	sw	s0,12(sp)
1000011c:	01010413          	addi	s0,sp,16
10000120:	00000013          	nop
10000124:	00c12403          	lw	s0,12(sp)
10000128:	01010113          	addi	sp,sp,16
1000012c:	00008067          	ret

10000130 <flush_cpu_dcache>:
10000130:	ff010113          	addi	sp,sp,-16
10000134:	00812623          	sw	s0,12(sp)
10000138:	01010413          	addi	s0,sp,16
1000013c:	00000013          	nop
10000140:	00c12403          	lw	s0,12(sp)
10000144:	01010113          	addi	sp,sp,16
10000148:	00008067          	ret

1000014c <irq_setmask>:
1000014c:	fe010113          	addi	sp,sp,-32
10000150:	00812e23          	sw	s0,28(sp)
10000154:	02010413          	addi	s0,sp,32
10000158:	fea42623          	sw	a0,-20(s0)
1000015c:	fec42783          	lw	a5,-20(s0)
10000160:	bc079073          	csrw	0xbc0,a5
10000164:	00000013          	nop
10000168:	01c12403          	lw	s0,28(sp)
1000016c:	02010113          	addi	sp,sp,32
10000170:	00008067          	ret

10000174 <isr>:
10000174:	ff010113          	addi	sp,sp,-16
10000178:	00112623          	sw	ra,12(sp)
1000017c:	00812423          	sw	s0,8(sp)
10000180:	01010413          	addi	s0,sp,16
10000184:	00000513          	li	a0,0
10000188:	fc5ff0ef          	jal	ra,1000014c <irq_setmask>
1000018c:	f00057b7          	lui	a5,0xf0005
10000190:	01c78793          	addi	a5,a5,28 # f000501c <_erodata+0xe000441c>
10000194:	0007a023          	sw	zero,0(a5)
10000198:	f00057b7          	lui	a5,0xf0005
1000019c:	00c78793          	addi	a5,a5,12 # f000500c <_erodata+0xe000440c>
100001a0:	00100713          	li	a4,1
100001a4:	00e7a023          	sw	a4,0(a5)
100001a8:	f00057b7          	lui	a5,0xf0005
100001ac:	01078793          	addi	a5,a5,16 # f0005010 <_erodata+0xe0004410>
100001b0:	0007a783          	lw	a5,0(a5)
100001b4:	00079863          	bnez	a5,100001c4 <isr+0x50>
100001b8:	00100713          	li	a4,1
100001bc:	10e01023          	sh	a4,256(zero) # 100 <flag>
100001c0:	0180006f          	j	100001d8 <isr+0x64>
100001c4:	f00057b7          	lui	a5,0xf0005
100001c8:	01c78793          	addi	a5,a5,28 # f000501c <_erodata+0xe000441c>
100001cc:	00100713          	li	a4,1
100001d0:	00e7a023          	sw	a4,0(a5)
100001d4:	00000013          	nop
100001d8:	00c12083          	lw	ra,12(sp)
100001dc:	00812403          	lw	s0,8(sp)
100001e0:	01010113          	addi	sp,sp,16
100001e4:	00008067          	ret

100001e8 <flush_cpu_icache>:
100001e8:	ff010113          	addi	sp,sp,-16
100001ec:	00812623          	sw	s0,12(sp)
100001f0:	01010413          	addi	s0,sp,16
100001f4:	00000013          	nop
100001f8:	00c12403          	lw	s0,12(sp)
100001fc:	01010113          	addi	sp,sp,16
10000200:	00008067          	ret

10000204 <flush_cpu_dcache>:
10000204:	ff010113          	addi	sp,sp,-16
10000208:	00812623          	sw	s0,12(sp)
1000020c:	01010413          	addi	s0,sp,16
10000210:	00000013          	nop
10000214:	00c12403          	lw	s0,12(sp)
10000218:	01010113          	addi	sp,sp,16
1000021c:	00008067          	ret

10000220 <putchar>:
10000220:	fe010113          	addi	sp,sp,-32
10000224:	00112e23          	sw	ra,28(sp)
10000228:	00812c23          	sw	s0,24(sp)
1000022c:	02010413          	addi	s0,sp,32
10000230:	00050793          	mv	a5,a0
10000234:	fef407a3          	sb	a5,-17(s0)
10000238:	fef44703          	lbu	a4,-17(s0)
1000023c:	00a00793          	li	a5,10
10000240:	00f71663          	bne	a4,a5,1000024c <putchar+0x2c>
10000244:	00d00513          	li	a0,13
10000248:	fd9ff0ef          	jal	ra,10000220 <putchar>
1000024c:	00000013          	nop
10000250:	f00067b7          	lui	a5,0xf0006
10000254:	80478793          	addi	a5,a5,-2044 # f0005804 <_erodata+0xe0004c04>
10000258:	0007a703          	lw	a4,0(a5)
1000025c:	00100793          	li	a5,1
10000260:	fef708e3          	beq	a4,a5,10000250 <putchar+0x30>
10000264:	f00067b7          	lui	a5,0xf0006
10000268:	80078793          	addi	a5,a5,-2048 # f0005800 <_erodata+0xe0004c00>
1000026c:	fef44703          	lbu	a4,-17(s0)
10000270:	00e7a023          	sw	a4,0(a5)
10000274:	00000013          	nop
10000278:	01c12083          	lw	ra,28(sp)
1000027c:	01812403          	lw	s0,24(sp)
10000280:	02010113          	addi	sp,sp,32
10000284:	00008067          	ret

10000288 <print>:
10000288:	fe010113          	addi	sp,sp,-32
1000028c:	00112e23          	sw	ra,28(sp)
10000290:	00812c23          	sw	s0,24(sp)
10000294:	02010413          	addi	s0,sp,32
10000298:	fea42623          	sw	a0,-20(s0)
1000029c:	01c0006f          	j	100002b8 <print+0x30>
100002a0:	fec42783          	lw	a5,-20(s0)
100002a4:	00178713          	addi	a4,a5,1
100002a8:	fee42623          	sw	a4,-20(s0)
100002ac:	0007c783          	lbu	a5,0(a5)
100002b0:	00078513          	mv	a0,a5
100002b4:	f6dff0ef          	jal	ra,10000220 <putchar>
100002b8:	fec42783          	lw	a5,-20(s0)
100002bc:	0007c783          	lbu	a5,0(a5)
100002c0:	fe0790e3          	bnez	a5,100002a0 <print+0x18>
100002c4:	00000013          	nop
100002c8:	00000013          	nop
100002cc:	01c12083          	lw	ra,28(sp)
100002d0:	01812403          	lw	s0,24(sp)
100002d4:	02010113          	addi	sp,sp,32
100002d8:	00008067          	ret

100002dc <count_down>:
100002dc:	fe010113          	addi	sp,sp,-32
100002e0:	00812e23          	sw	s0,28(sp)
100002e4:	02010413          	addi	s0,sp,32
100002e8:	fea42623          	sw	a0,-20(s0)
100002ec:	f00057b7          	lui	a5,0xf0005
100002f0:	00878793          	addi	a5,a5,8 # f0005008 <_erodata+0xe0004408>
100002f4:	0007a023          	sw	zero,0(a5)
100002f8:	f00057b7          	lui	a5,0xf0005
100002fc:	fec42703          	lw	a4,-20(s0)
10000300:	00e7a023          	sw	a4,0(a5) # f0005000 <_erodata+0xe0004400>
10000304:	f00057b7          	lui	a5,0xf0005
10000308:	00878793          	addi	a5,a5,8 # f0005008 <_erodata+0xe0004408>
1000030c:	00100713          	li	a4,1
10000310:	00e7a023          	sw	a4,0(a5)
10000314:	f00057b7          	lui	a5,0xf0005
10000318:	00c78793          	addi	a5,a5,12 # f000500c <_erodata+0xe000440c>
1000031c:	00100713          	li	a4,1
10000320:	00e7a023          	sw	a4,0(a5)
10000324:	0140006f          	j	10000338 <count_down+0x5c>
10000328:	f00057b7          	lui	a5,0xf0005
1000032c:	00c78793          	addi	a5,a5,12 # f000500c <_erodata+0xe000440c>
10000330:	00100713          	li	a4,1
10000334:	00e7a023          	sw	a4,0(a5)
10000338:	f00057b7          	lui	a5,0xf0005
1000033c:	01078793          	addi	a5,a5,16 # f0005010 <_erodata+0xe0004410>
10000340:	0007a783          	lw	a5,0(a5)
10000344:	fe0792e3          	bnez	a5,10000328 <count_down+0x4c>
10000348:	00000013          	nop
1000034c:	00000013          	nop
10000350:	01c12403          	lw	s0,28(sp)
10000354:	02010113          	addi	sp,sp,32
10000358:	00008067          	ret

1000035c <send_pulse>:
1000035c:	ff010113          	addi	sp,sp,-16
10000360:	00112623          	sw	ra,12(sp)
10000364:	00812423          	sw	s0,8(sp)
10000368:	01010413          	addi	s0,sp,16
1000036c:	f00037b7          	lui	a5,0xf0003
10000370:	81478793          	addi	a5,a5,-2028 # f0002814 <_erodata+0xe0001c14>
10000374:	0007a023          	sw	zero,0(a5)
10000378:	002627b7          	lui	a5,0x262
1000037c:	5a078513          	addi	a0,a5,1440 # 2625a0 <_fstack+0x2621a0>
10000380:	f5dff0ef          	jal	ra,100002dc <count_down>
10000384:	f00037b7          	lui	a5,0xf0003
10000388:	81478793          	addi	a5,a5,-2028 # f0002814 <_erodata+0xe0001c14>
1000038c:	00100713          	li	a4,1
10000390:	00e7a023          	sw	a4,0(a5)
10000394:	002627b7          	lui	a5,0x262
10000398:	5a078513          	addi	a0,a5,1440 # 2625a0 <_fstack+0x2621a0>
1000039c:	f41ff0ef          	jal	ra,100002dc <count_down>
100003a0:	00000013          	nop
100003a4:	00c12083          	lw	ra,12(sp)
100003a8:	00812403          	lw	s0,8(sp)
100003ac:	01010113          	addi	sp,sp,16
100003b0:	00008067          	ret

100003b4 <send_packet>:
100003b4:	fd010113          	addi	sp,sp,-48
100003b8:	02112623          	sw	ra,44(sp)
100003bc:	02812423          	sw	s0,40(sp)
100003c0:	03010413          	addi	s0,sp,48
100003c4:	fca42e23          	sw	a0,-36(s0)
100003c8:	fe042623          	sw	zero,-20(s0)
100003cc:	0140006f          	j	100003e0 <send_packet+0x2c>
100003d0:	f8dff0ef          	jal	ra,1000035c <send_pulse>
100003d4:	fec42783          	lw	a5,-20(s0)
100003d8:	00178793          	addi	a5,a5,1
100003dc:	fef42623          	sw	a5,-20(s0)
100003e0:	fdc42703          	lw	a4,-36(s0)
100003e4:	fec42783          	lw	a5,-20(s0)
100003e8:	fef754e3          	bge	a4,a5,100003d0 <send_packet+0x1c>
100003ec:	017d87b7          	lui	a5,0x17d8
100003f0:	84078513          	addi	a0,a5,-1984 # 17d7840 <_fstack+0x17d7440>
100003f4:	ee9ff0ef          	jal	ra,100002dc <count_down>
100003f8:	00000013          	nop
100003fc:	02c12083          	lw	ra,44(sp)
10000400:	02812403          	lw	s0,40(sp)
10000404:	03010113          	addi	sp,sp,48
10000408:	00008067          	ret

1000040c <configure_mgmt_gpio>:
1000040c:	ff010113          	addi	sp,sp,-16
10000410:	00112623          	sw	ra,12(sp)
10000414:	00812423          	sw	s0,8(sp)
10000418:	01010413          	addi	s0,sp,16
1000041c:	f00037b7          	lui	a5,0xf0003
10000420:	80078793          	addi	a5,a5,-2048 # f0002800 <_erodata+0xe0001c00>
10000424:	00100713          	li	a4,1
10000428:	00e7a023          	sw	a4,0(a5)
1000042c:	f00037b7          	lui	a5,0xf0003
10000430:	80478793          	addi	a5,a5,-2044 # f0002804 <_erodata+0xe0001c04>
10000434:	0007a023          	sw	zero,0(a5)
10000438:	f00037b7          	lui	a5,0xf0003
1000043c:	80878793          	addi	a5,a5,-2040 # f0002808 <_erodata+0xe0001c08>
10000440:	00100713          	li	a4,1
10000444:	00e7a023          	sw	a4,0(a5)
10000448:	f00037b7          	lui	a5,0xf0003
1000044c:	80c78793          	addi	a5,a5,-2036 # f000280c <_erodata+0xe0001c0c>
10000450:	00100713          	li	a4,1
10000454:	00e7a023          	sw	a4,0(a5)
10000458:	f00037b7          	lui	a5,0xf0003
1000045c:	81478793          	addi	a5,a5,-2028 # f0002814 <_erodata+0xe0001c14>
10000460:	00100713          	li	a4,1
10000464:	00e7a023          	sw	a4,0(a5)
10000468:	02faf7b7          	lui	a5,0x2faf
1000046c:	08078513          	addi	a0,a5,128 # 2faf080 <_fstack+0x2faec80>
10000470:	e6dff0ef          	jal	ra,100002dc <count_down>
10000474:	00000013          	nop
10000478:	00c12083          	lw	ra,12(sp)
1000047c:	00812403          	lw	s0,8(sp)
10000480:	01010113          	addi	sp,sp,16
10000484:	00008067          	ret

10000488 <delay>:
10000488:	fe010113          	addi	sp,sp,-32
1000048c:	00812e23          	sw	s0,28(sp)
10000490:	02010413          	addi	s0,sp,32
10000494:	fea42623          	sw	a0,-20(s0)
10000498:	f00057b7          	lui	a5,0xf0005
1000049c:	00878793          	addi	a5,a5,8 # f0005008 <_erodata+0xe0004408>
100004a0:	0007a023          	sw	zero,0(a5)
100004a4:	f00057b7          	lui	a5,0xf0005
100004a8:	fec42703          	lw	a4,-20(s0)
100004ac:	00e7a023          	sw	a4,0(a5) # f0005000 <_erodata+0xe0004400>
100004b0:	f00057b7          	lui	a5,0xf0005
100004b4:	00878793          	addi	a5,a5,8 # f0005008 <_erodata+0xe0004408>
100004b8:	00100713          	li	a4,1
100004bc:	00e7a023          	sw	a4,0(a5)
100004c0:	f00057b7          	lui	a5,0xf0005
100004c4:	00c78793          	addi	a5,a5,12 # f000500c <_erodata+0xe000440c>
100004c8:	00100713          	li	a4,1
100004cc:	00e7a023          	sw	a4,0(a5)
100004d0:	0140006f          	j	100004e4 <delay+0x5c>
100004d4:	f00057b7          	lui	a5,0xf0005
100004d8:	00c78793          	addi	a5,a5,12 # f000500c <_erodata+0xe000440c>
100004dc:	00100713          	li	a4,1
100004e0:	00e7a023          	sw	a4,0(a5)
100004e4:	f00057b7          	lui	a5,0xf0005
100004e8:	01078793          	addi	a5,a5,16 # f0005010 <_erodata+0xe0004410>
100004ec:	0007a783          	lw	a5,0(a5)
100004f0:	fe0792e3          	bnez	a5,100004d4 <delay+0x4c>
100004f4:	00000013          	nop
100004f8:	00000013          	nop
100004fc:	01c12403          	lw	s0,28(sp)
10000500:	02010113          	addi	sp,sp,32
10000504:	00008067          	ret

10000508 <bb_mode>:
10000508:	ff010113          	addi	sp,sp,-16
1000050c:	00812623          	sw	s0,12(sp)
10000510:	01010413          	addi	s0,sp,16
10000514:	260007b7          	lui	a5,0x26000
10000518:	00600713          	li	a4,6
1000051c:	00e7a023          	sw	a4,0(a5) # 26000000 <_erodata+0x15fff400>
10000520:	260007b7          	lui	a5,0x26000
10000524:	00200713          	li	a4,2
10000528:	00e7a023          	sw	a4,0(a5) # 26000000 <_erodata+0x15fff400>
1000052c:	260007b7          	lui	a5,0x26000
10000530:	00600713          	li	a4,6
10000534:	00e7a023          	sw	a4,0(a5) # 26000000 <_erodata+0x15fff400>
10000538:	00000013          	nop
1000053c:	00c12403          	lw	s0,12(sp)
10000540:	01010113          	addi	sp,sp,16
10000544:	00008067          	ret

10000548 <load>:
10000548:	ff010113          	addi	sp,sp,-16
1000054c:	00112623          	sw	ra,12(sp)
10000550:	00812423          	sw	s0,8(sp)
10000554:	01010413          	addi	s0,sp,16
10000558:	260007b7          	lui	a5,0x26000
1000055c:	00600713          	li	a4,6
10000560:	00e7a023          	sw	a4,0(a5) # 26000000 <_erodata+0x15fff400>
10000564:	0000c7b7          	lui	a5,0xc
10000568:	35078513          	addi	a0,a5,848 # c350 <_fstack+0xbf50>
1000056c:	f1dff0ef          	jal	ra,10000488 <delay>
10000570:	260007b7          	lui	a5,0x26000
10000574:	00e00713          	li	a4,14
10000578:	00e7a023          	sw	a4,0(a5) # 26000000 <_erodata+0x15fff400>
1000057c:	0000c7b7          	lui	a5,0xc
10000580:	35078513          	addi	a0,a5,848 # c350 <_fstack+0xbf50>
10000584:	f05ff0ef          	jal	ra,10000488 <delay>
10000588:	260007b7          	lui	a5,0x26000
1000058c:	00600713          	li	a4,6
10000590:	00e7a023          	sw	a4,0(a5) # 26000000 <_erodata+0x15fff400>
10000594:	0000c7b7          	lui	a5,0xc
10000598:	35078513          	addi	a0,a5,848 # c350 <_fstack+0xbf50>
1000059c:	eedff0ef          	jal	ra,10000488 <delay>
100005a0:	00000013          	nop
100005a4:	00c12083          	lw	ra,12(sp)
100005a8:	00812403          	lw	s0,8(sp)
100005ac:	01010113          	addi	sp,sp,16
100005b0:	00008067          	ret

100005b4 <clear_registers>:
100005b4:	fe010113          	addi	sp,sp,-32
100005b8:	00112e23          	sw	ra,28(sp)
100005bc:	00812c23          	sw	s0,24(sp)
100005c0:	02010413          	addi	s0,sp,32
100005c4:	fe042623          	sw	zero,-20(s0)
100005c8:	0400006f          	j	10000608 <clear_registers+0x54>
100005cc:	260007b7          	lui	a5,0x26000
100005d0:	00600713          	li	a4,6
100005d4:	00e7a023          	sw	a4,0(a5) # 26000000 <_erodata+0x15fff400>
100005d8:	0000c7b7          	lui	a5,0xc
100005dc:	35078513          	addi	a0,a5,848 # c350 <_fstack+0xbf50>
100005e0:	ea9ff0ef          	jal	ra,10000488 <delay>
100005e4:	260007b7          	lui	a5,0x26000
100005e8:	01600713          	li	a4,22
100005ec:	00e7a023          	sw	a4,0(a5) # 26000000 <_erodata+0x15fff400>
100005f0:	0000c7b7          	lui	a5,0xc
100005f4:	35078513          	addi	a0,a5,848 # c350 <_fstack+0xbf50>
100005f8:	e91ff0ef          	jal	ra,10000488 <delay>
100005fc:	fec42783          	lw	a5,-20(s0)
10000600:	00178793          	addi	a5,a5,1
10000604:	fef42623          	sw	a5,-20(s0)
10000608:	fec42703          	lw	a4,-20(s0)
1000060c:	0f900793          	li	a5,249
10000610:	fae7dee3          	bge	a5,a4,100005cc <clear_registers+0x18>
10000614:	f35ff0ef          	jal	ra,10000548 <load>
10000618:	00000013          	nop
1000061c:	01c12083          	lw	ra,28(sp)
10000620:	01812403          	lw	s0,24(sp)
10000624:	02010113          	addi	sp,sp,32
10000628:	00008067          	ret

1000062c <gpio_config_io>:
1000062c:	fe010113          	addi	sp,sp,-32
10000630:	00112e23          	sw	ra,28(sp)
10000634:	00812c23          	sw	s0,24(sp)
10000638:	02010413          	addi	s0,sp,32
1000063c:	00100793          	li	a5,1
10000640:	fef42623          	sw	a5,-20(s0)
10000644:	00000793          	li	a5,0
10000648:	0007c783          	lbu	a5,0(a5)
1000064c:	fef42423          	sw	a5,-24(s0)
10000650:	f65ff0ef          	jal	ra,100005b4 <clear_registers>
10000654:	05c0006f          	j	100006b0 <gpio_config_io+0x84>
10000658:	00000713          	li	a4,0
1000065c:	fec42783          	lw	a5,-20(s0)
10000660:	00f707b3          	add	a5,a4,a5
10000664:	0007c703          	lbu	a4,0(a5)
10000668:	260007b7          	lui	a5,0x26000
1000066c:	00e7a023          	sw	a4,0(a5) # 26000000 <_erodata+0x15fff400>
10000670:	0000c7b7          	lui	a5,0xc
10000674:	35078513          	addi	a0,a5,848 # c350 <_fstack+0xbf50>
10000678:	e11ff0ef          	jal	ra,10000488 <delay>
1000067c:	00000713          	li	a4,0
10000680:	fec42783          	lw	a5,-20(s0)
10000684:	00f707b3          	add	a5,a4,a5
10000688:	0007c783          	lbu	a5,0(a5)
1000068c:	01078713          	addi	a4,a5,16
10000690:	260007b7          	lui	a5,0x26000
10000694:	00e7a023          	sw	a4,0(a5) # 26000000 <_erodata+0x15fff400>
10000698:	0000c7b7          	lui	a5,0xc
1000069c:	35078513          	addi	a0,a5,848 # c350 <_fstack+0xbf50>
100006a0:	de9ff0ef          	jal	ra,10000488 <delay>
100006a4:	fec42783          	lw	a5,-20(s0)
100006a8:	00178793          	addi	a5,a5,1
100006ac:	fef42623          	sw	a5,-20(s0)
100006b0:	fec42703          	lw	a4,-20(s0)
100006b4:	fe842783          	lw	a5,-24(s0)
100006b8:	faf740e3          	blt	a4,a5,10000658 <gpio_config_io+0x2c>
100006bc:	e8dff0ef          	jal	ra,10000548 <load>
100006c0:	00000013          	nop
100006c4:	01c12083          	lw	ra,28(sp)
100006c8:	01812403          	lw	s0,24(sp)
100006cc:	02010113          	addi	sp,sp,32
100006d0:	00008067          	ret

100006d4 <set_registers>:
100006d4:	ff010113          	addi	sp,sp,-16
100006d8:	00812623          	sw	s0,12(sp)
100006dc:	01010413          	addi	s0,sp,16
100006e0:	260007b7          	lui	a5,0x26000
100006e4:	02478793          	addi	a5,a5,36 # 26000024 <_erodata+0x15fff424>
100006e8:	00001737          	lui	a4,0x1
100006ec:	00b70713          	addi	a4,a4,11 # 100b <_fstack+0xc0b>
100006f0:	00e7a023          	sw	a4,0(a5)
100006f4:	260007b7          	lui	a5,0x26000
100006f8:	02878793          	addi	a5,a5,40 # 26000028 <_erodata+0x15fff428>
100006fc:	00002737          	lui	a4,0x2
10000700:	80970713          	addi	a4,a4,-2039 # 1809 <_fstack+0x1409>
10000704:	00e7a023          	sw	a4,0(a5)
10000708:	260007b7          	lui	a5,0x26000
1000070c:	02c78793          	addi	a5,a5,44 # 2600002c <_erodata+0x15fff42c>
10000710:	00002737          	lui	a4,0x2
10000714:	80970713          	addi	a4,a4,-2039 # 1809 <_fstack+0x1409>
10000718:	00e7a023          	sw	a4,0(a5)
1000071c:	260007b7          	lui	a5,0x26000
10000720:	03078793          	addi	a5,a5,48 # 26000030 <_erodata+0x15fff430>
10000724:	00002737          	lui	a4,0x2
10000728:	80970713          	addi	a4,a4,-2039 # 1809 <_fstack+0x1409>
1000072c:	00e7a023          	sw	a4,0(a5)
10000730:	260007b7          	lui	a5,0x26000
10000734:	03478793          	addi	a5,a5,52 # 26000034 <_erodata+0x15fff434>
10000738:	00002737          	lui	a4,0x2
1000073c:	80970713          	addi	a4,a4,-2039 # 1809 <_fstack+0x1409>
10000740:	00e7a023          	sw	a4,0(a5)
10000744:	260007b7          	lui	a5,0x26000
10000748:	03878793          	addi	a5,a5,56 # 26000038 <_erodata+0x15fff438>
1000074c:	00002737          	lui	a4,0x2
10000750:	80970713          	addi	a4,a4,-2039 # 1809 <_fstack+0x1409>
10000754:	00e7a023          	sw	a4,0(a5)
10000758:	260007b7          	lui	a5,0x26000
1000075c:	03c78793          	addi	a5,a5,60 # 2600003c <_erodata+0x15fff43c>
10000760:	00002737          	lui	a4,0x2
10000764:	80970713          	addi	a4,a4,-2039 # 1809 <_fstack+0x1409>
10000768:	00e7a023          	sw	a4,0(a5)
1000076c:	260007b7          	lui	a5,0x26000
10000770:	04078793          	addi	a5,a5,64 # 26000040 <_erodata+0x15fff440>
10000774:	00002737          	lui	a4,0x2
10000778:	80970713          	addi	a4,a4,-2039 # 1809 <_fstack+0x1409>
1000077c:	00e7a023          	sw	a4,0(a5)
10000780:	260007b7          	lui	a5,0x26000
10000784:	04478793          	addi	a5,a5,68 # 26000044 <_erodata+0x15fff444>
10000788:	00002737          	lui	a4,0x2
1000078c:	80970713          	addi	a4,a4,-2039 # 1809 <_fstack+0x1409>
10000790:	00e7a023          	sw	a4,0(a5)
10000794:	260007b7          	lui	a5,0x26000
10000798:	04878793          	addi	a5,a5,72 # 26000048 <_erodata+0x15fff448>
1000079c:	00002737          	lui	a4,0x2
100007a0:	80970713          	addi	a4,a4,-2039 # 1809 <_fstack+0x1409>
100007a4:	00e7a023          	sw	a4,0(a5)
100007a8:	260007b7          	lui	a5,0x26000
100007ac:	04c78793          	addi	a5,a5,76 # 2600004c <_erodata+0x15fff44c>
100007b0:	00002737          	lui	a4,0x2
100007b4:	80970713          	addi	a4,a4,-2039 # 1809 <_fstack+0x1409>
100007b8:	00e7a023          	sw	a4,0(a5)
100007bc:	260007b7          	lui	a5,0x26000
100007c0:	05078793          	addi	a5,a5,80 # 26000050 <_erodata+0x15fff450>
100007c4:	00002737          	lui	a4,0x2
100007c8:	80970713          	addi	a4,a4,-2039 # 1809 <_fstack+0x1409>
100007cc:	00e7a023          	sw	a4,0(a5)
100007d0:	260007b7          	lui	a5,0x26000
100007d4:	05478793          	addi	a5,a5,84 # 26000054 <_erodata+0x15fff454>
100007d8:	00002737          	lui	a4,0x2
100007dc:	80970713          	addi	a4,a4,-2039 # 1809 <_fstack+0x1409>
100007e0:	00e7a023          	sw	a4,0(a5)
100007e4:	260007b7          	lui	a5,0x26000
100007e8:	05878793          	addi	a5,a5,88 # 26000058 <_erodata+0x15fff458>
100007ec:	00002737          	lui	a4,0x2
100007f0:	80970713          	addi	a4,a4,-2039 # 1809 <_fstack+0x1409>
100007f4:	00e7a023          	sw	a4,0(a5)
100007f8:	260007b7          	lui	a5,0x26000
100007fc:	05c78793          	addi	a5,a5,92 # 2600005c <_erodata+0x15fff45c>
10000800:	00002737          	lui	a4,0x2
10000804:	80970713          	addi	a4,a4,-2039 # 1809 <_fstack+0x1409>
10000808:	00e7a023          	sw	a4,0(a5)
1000080c:	260007b7          	lui	a5,0x26000
10000810:	06078793          	addi	a5,a5,96 # 26000060 <_erodata+0x15fff460>
10000814:	00002737          	lui	a4,0x2
10000818:	80970713          	addi	a4,a4,-2039 # 1809 <_fstack+0x1409>
1000081c:	00e7a023          	sw	a4,0(a5)
10000820:	260007b7          	lui	a5,0x26000
10000824:	06478793          	addi	a5,a5,100 # 26000064 <_erodata+0x15fff464>
10000828:	00002737          	lui	a4,0x2
1000082c:	80970713          	addi	a4,a4,-2039 # 1809 <_fstack+0x1409>
10000830:	00e7a023          	sw	a4,0(a5)
10000834:	260007b7          	lui	a5,0x26000
10000838:	06878793          	addi	a5,a5,104 # 26000068 <_erodata+0x15fff468>
1000083c:	00002737          	lui	a4,0x2
10000840:	80970713          	addi	a4,a4,-2039 # 1809 <_fstack+0x1409>
10000844:	00e7a023          	sw	a4,0(a5)
10000848:	260007b7          	lui	a5,0x26000
1000084c:	06c78793          	addi	a5,a5,108 # 2600006c <_erodata+0x15fff46c>
10000850:	00002737          	lui	a4,0x2
10000854:	80970713          	addi	a4,a4,-2039 # 1809 <_fstack+0x1409>
10000858:	00e7a023          	sw	a4,0(a5)
1000085c:	260007b7          	lui	a5,0x26000
10000860:	07078793          	addi	a5,a5,112 # 26000070 <_erodata+0x15fff470>
10000864:	00002737          	lui	a4,0x2
10000868:	80970713          	addi	a4,a4,-2039 # 1809 <_fstack+0x1409>
1000086c:	00e7a023          	sw	a4,0(a5)
10000870:	260007b7          	lui	a5,0x26000
10000874:	07478793          	addi	a5,a5,116 # 26000074 <_erodata+0x15fff474>
10000878:	00002737          	lui	a4,0x2
1000087c:	80970713          	addi	a4,a4,-2039 # 1809 <_fstack+0x1409>
10000880:	00e7a023          	sw	a4,0(a5)
10000884:	260007b7          	lui	a5,0x26000
10000888:	07878793          	addi	a5,a5,120 # 26000078 <_erodata+0x15fff478>
1000088c:	00002737          	lui	a4,0x2
10000890:	80970713          	addi	a4,a4,-2039 # 1809 <_fstack+0x1409>
10000894:	00e7a023          	sw	a4,0(a5)
10000898:	260007b7          	lui	a5,0x26000
1000089c:	07c78793          	addi	a5,a5,124 # 2600007c <_erodata+0x15fff47c>
100008a0:	00002737          	lui	a4,0x2
100008a4:	80970713          	addi	a4,a4,-2039 # 1809 <_fstack+0x1409>
100008a8:	00e7a023          	sw	a4,0(a5)
100008ac:	260007b7          	lui	a5,0x26000
100008b0:	08078793          	addi	a5,a5,128 # 26000080 <_erodata+0x15fff480>
100008b4:	00002737          	lui	a4,0x2
100008b8:	80970713          	addi	a4,a4,-2039 # 1809 <_fstack+0x1409>
100008bc:	00e7a023          	sw	a4,0(a5)
100008c0:	260007b7          	lui	a5,0x26000
100008c4:	08478793          	addi	a5,a5,132 # 26000084 <_erodata+0x15fff484>
100008c8:	00002737          	lui	a4,0x2
100008cc:	80970713          	addi	a4,a4,-2039 # 1809 <_fstack+0x1409>
100008d0:	00e7a023          	sw	a4,0(a5)
100008d4:	260007b7          	lui	a5,0x26000
100008d8:	08878793          	addi	a5,a5,136 # 26000088 <_erodata+0x15fff488>
100008dc:	00002737          	lui	a4,0x2
100008e0:	80970713          	addi	a4,a4,-2039 # 1809 <_fstack+0x1409>
100008e4:	00e7a023          	sw	a4,0(a5)
100008e8:	260007b7          	lui	a5,0x26000
100008ec:	08c78793          	addi	a5,a5,140 # 2600008c <_erodata+0x15fff48c>
100008f0:	00002737          	lui	a4,0x2
100008f4:	80970713          	addi	a4,a4,-2039 # 1809 <_fstack+0x1409>
100008f8:	00e7a023          	sw	a4,0(a5)
100008fc:	260007b7          	lui	a5,0x26000
10000900:	09078793          	addi	a5,a5,144 # 26000090 <_erodata+0x15fff490>
10000904:	00002737          	lui	a4,0x2
10000908:	80970713          	addi	a4,a4,-2039 # 1809 <_fstack+0x1409>
1000090c:	00e7a023          	sw	a4,0(a5)
10000910:	260007b7          	lui	a5,0x26000
10000914:	09478793          	addi	a5,a5,148 # 26000094 <_erodata+0x15fff494>
10000918:	00002737          	lui	a4,0x2
1000091c:	80970713          	addi	a4,a4,-2039 # 1809 <_fstack+0x1409>
10000920:	00e7a023          	sw	a4,0(a5)
10000924:	260007b7          	lui	a5,0x26000
10000928:	09878793          	addi	a5,a5,152 # 26000098 <_erodata+0x15fff498>
1000092c:	00002737          	lui	a4,0x2
10000930:	80970713          	addi	a4,a4,-2039 # 1809 <_fstack+0x1409>
10000934:	00e7a023          	sw	a4,0(a5)
10000938:	260007b7          	lui	a5,0x26000
1000093c:	09c78793          	addi	a5,a5,156 # 2600009c <_erodata+0x15fff49c>
10000940:	00002737          	lui	a4,0x2
10000944:	80970713          	addi	a4,a4,-2039 # 1809 <_fstack+0x1409>
10000948:	00e7a023          	sw	a4,0(a5)
1000094c:	260007b7          	lui	a5,0x26000
10000950:	0a078793          	addi	a5,a5,160 # 260000a0 <_erodata+0x15fff4a0>
10000954:	00002737          	lui	a4,0x2
10000958:	80970713          	addi	a4,a4,-2039 # 1809 <_fstack+0x1409>
1000095c:	00e7a023          	sw	a4,0(a5)
10000960:	260007b7          	lui	a5,0x26000
10000964:	0a478793          	addi	a5,a5,164 # 260000a4 <_erodata+0x15fff4a4>
10000968:	00002737          	lui	a4,0x2
1000096c:	80970713          	addi	a4,a4,-2039 # 1809 <_fstack+0x1409>
10000970:	00e7a023          	sw	a4,0(a5)
10000974:	260007b7          	lui	a5,0x26000
10000978:	0a878793          	addi	a5,a5,168 # 260000a8 <_erodata+0x15fff4a8>
1000097c:	00002737          	lui	a4,0x2
10000980:	80970713          	addi	a4,a4,-2039 # 1809 <_fstack+0x1409>
10000984:	00e7a023          	sw	a4,0(a5)
10000988:	260007b7          	lui	a5,0x26000
1000098c:	0ac78793          	addi	a5,a5,172 # 260000ac <_erodata+0x15fff4ac>
10000990:	00002737          	lui	a4,0x2
10000994:	80970713          	addi	a4,a4,-2039 # 1809 <_fstack+0x1409>
10000998:	00e7a023          	sw	a4,0(a5)
1000099c:	260007b7          	lui	a5,0x26000
100009a0:	0b078793          	addi	a5,a5,176 # 260000b0 <_erodata+0x15fff4b0>
100009a4:	00002737          	lui	a4,0x2
100009a8:	80970713          	addi	a4,a4,-2039 # 1809 <_fstack+0x1409>
100009ac:	00e7a023          	sw	a4,0(a5)
100009b0:	260007b7          	lui	a5,0x26000
100009b4:	0b478793          	addi	a5,a5,180 # 260000b4 <_erodata+0x15fff4b4>
100009b8:	00002737          	lui	a4,0x2
100009bc:	80970713          	addi	a4,a4,-2039 # 1809 <_fstack+0x1409>
100009c0:	00e7a023          	sw	a4,0(a5)
100009c4:	260007b7          	lui	a5,0x26000
100009c8:	0b878793          	addi	a5,a5,184 # 260000b8 <_erodata+0x15fff4b8>
100009cc:	00002737          	lui	a4,0x2
100009d0:	80970713          	addi	a4,a4,-2039 # 1809 <_fstack+0x1409>
100009d4:	00e7a023          	sw	a4,0(a5)
100009d8:	00000013          	nop
100009dc:	00c12403          	lw	s0,12(sp)
100009e0:	01010113          	addi	sp,sp,16
100009e4:	00008067          	ret

100009e8 <main>:
100009e8:	fe010113          	addi	sp,sp,-32
100009ec:	00112e23          	sw	ra,28(sp)
100009f0:	00812c23          	sw	s0,24(sp)
100009f4:	02010413          	addi	s0,sp,32
100009f8:	a15ff0ef          	jal	ra,1000040c <configure_mgmt_gpio>
100009fc:	cd9ff0ef          	jal	ra,100006d4 <set_registers>
10000a00:	260007b7          	lui	a5,0x26000
10000a04:	01078793          	addi	a5,a5,16 # 26000010 <_erodata+0x15fff410>
10000a08:	0007a023          	sw	zero,0(a5)
10000a0c:	260007b7          	lui	a5,0x26000
10000a10:	00c78793          	addi	a5,a5,12 # 2600000c <_erodata+0x15fff40c>
10000a14:	0007a023          	sw	zero,0(a5)
10000a18:	c15ff0ef          	jal	ra,1000062c <gpio_config_io>
10000a1c:	00200513          	li	a0,2
10000a20:	995ff0ef          	jal	ra,100003b4 <send_packet>
10000a24:	f00067b7          	lui	a5,0xf0006
10000a28:	00100713          	li	a4,1
10000a2c:	00e7a023          	sw	a4,0(a5) # f0006000 <_erodata+0xe0005400>
10000a30:	100017b7          	lui	a5,0x10001
10000a34:	b0078513          	addi	a0,a5,-1280 # 10000b00 <_etext>
10000a38:	851ff0ef          	jal	ra,10000288 <print>
10000a3c:	fe042623          	sw	zero,-20(s0)
10000a40:	0100006f          	j	10000a50 <main+0x68>
10000a44:	fec42783          	lw	a5,-20(s0)
10000a48:	00178793          	addi	a5,a5,1
10000a4c:	fef42623          	sw	a5,-20(s0)
10000a50:	fec42703          	lw	a4,-20(s0)
10000a54:	3e700793          	li	a5,999
10000a58:	fee7d6e3          	bge	a5,a4,10000a44 <main+0x5c>
10000a5c:	00500513          	li	a0,5
10000a60:	955ff0ef          	jal	ra,100003b4 <send_packet>
10000a64:	00300513          	li	a0,3
10000a68:	94dff0ef          	jal	ra,100003b4 <send_packet>
10000a6c:	00300513          	li	a0,3
10000a70:	945ff0ef          	jal	ra,100003b4 <send_packet>
10000a74:	00300513          	li	a0,3
10000a78:	93dff0ef          	jal	ra,100003b4 <send_packet>
10000a7c:	00000013          	nop
10000a80:	01c12083          	lw	ra,28(sp)
10000a84:	01812403          	lw	s0,24(sp)
10000a88:	02010113          	addi	sp,sp,32
10000a8c:	00008067          	ret
	...

Disassembly of section .rodata:

10000b00 <_frodata>:
10000b00:	6f4d                	lui	t5,0x13
10000b02:	696e                	flw	fs2,216(sp)
10000b04:	6f74                	flw	fa3,92(a4)
10000b06:	3a72                	fld	fs4,312(sp)
10000b08:	5420                	lw	s0,104(s0)
10000b0a:	7365                	lui	t1,0xffff9
10000b0c:	2074                	fld	fa3,192(s0)
10000b0e:	4155                	li	sp,21
10000b10:	5452                	lw	s0,52(sp)
10000b12:	7020                	flw	fs0,96(s0)
10000b14:	7361                	lui	t1,0xffff8
10000b16:	0a646573          	csrrsi	a0,0xa6,8
	...

Disassembly of section .data:

00000000 <config_stream>:
   0:	064646f7          	0x64646f7
   4:	0606                	slli	a2,a2,0x1
   6:	0606                	slli	a2,a2,0x1
   8:	2606                	fld	fa2,64(sp)
   a:	2626                	fld	fa2,72(sp)
   c:	6626                	flw	fa2,72(sp)
   e:	6666                	flw	fa2,88(sp)
  10:	2626                	fld	fa2,72(sp)
  12:	0606                	slli	a2,a2,0x1
  14:	2606                	fld	fa2,64(sp)
  16:	2626                	fld	fa2,72(sp)
  18:	2626                	fld	fa2,72(sp)
  1a:	6666                	flw	fa2,88(sp)
  1c:	2666                	fld	fa2,88(sp)
  1e:	0606                	slli	a2,a2,0x1
  20:	0606                	slli	a2,a2,0x1
  22:	2626                	fld	fa2,72(sp)
  24:	2626                	fld	fa2,72(sp)
  26:	6626                	flw	fa2,72(sp)
  28:	6666                	flw	fa2,88(sp)
  2a:	0606                	slli	a2,a2,0x1
  2c:	0606                	slli	a2,a2,0x1
  2e:	2626                	fld	fa2,72(sp)
  30:	2626                	fld	fa2,72(sp)
  32:	2626                	fld	fa2,72(sp)
  34:	6666                	flw	fa2,88(sp)
  36:	0646                	slli	a2,a2,0x11
  38:	0606                	slli	a2,a2,0x1
  3a:	2626                	fld	fa2,72(sp)
  3c:	2626                	fld	fa2,72(sp)
  3e:	2626                	fld	fa2,72(sp)
  40:	6626                	flw	fa2,72(sp)
  42:	4646                	lw	a2,80(sp)
  44:	0606                	slli	a2,a2,0x1
  46:	2626                	fld	fa2,72(sp)
  48:	2626                	fld	fa2,72(sp)
  4a:	2626                	fld	fa2,72(sp)
  4c:	2626                	fld	fa2,72(sp)
  4e:	4646                	lw	a2,80(sp)
  50:	0646                	slli	a2,a2,0x11
  52:	2626                	fld	fa2,72(sp)
  54:	2626                	fld	fa2,72(sp)
  56:	2626                	fld	fa2,72(sp)
  58:	2626                	fld	fa2,72(sp)
  5a:	4606                	lw	a2,64(sp)
  5c:	4646                	lw	a2,80(sp)
  5e:	2606                	fld	fa2,64(sp)
  60:	2626                	fld	fa2,72(sp)
  62:	2626                	fld	fa2,72(sp)
  64:	2626                	fld	fa2,72(sp)
  66:	0606                	slli	a2,a2,0x1
  68:	4646                	lw	a2,80(sp)
  6a:	2646                	fld	fa2,80(sp)
  6c:	2626                	fld	fa2,72(sp)
  6e:	2626                	fld	fa2,72(sp)
  70:	2626                	fld	fa2,72(sp)
  72:	0606                	slli	a2,a2,0x1
  74:	4606                	lw	a2,64(sp)
  76:	4646                	lw	a2,80(sp)
  78:	2626                	fld	fa2,72(sp)
  7a:	2626                	fld	fa2,72(sp)
  7c:	2626                	fld	fa2,72(sp)
  7e:	0606                	slli	a2,a2,0x1
  80:	0606                	slli	a2,a2,0x1
  82:	4646                	lw	a2,80(sp)
  84:	2666                	fld	fa2,88(sp)
  86:	2626                	fld	fa2,72(sp)
  88:	2626                	fld	fa2,72(sp)
  8a:	0606                	slli	a2,a2,0x1
  8c:	0606                	slli	a2,a2,0x1
  8e:	4606                	lw	a2,64(sp)
  90:	6646                	flw	fa2,80(sp)
  92:	2626                	fld	fa2,72(sp)
  94:	2626                	fld	fa2,72(sp)
  96:	0606                	slli	a2,a2,0x1
  98:	0606                	slli	a2,a2,0x1
  9a:	0606                	slli	a2,a2,0x1
  9c:	4646                	lw	a2,80(sp)
  9e:	2666                	fld	fa2,88(sp)
  a0:	2626                	fld	fa2,72(sp)
  a2:	0606                	slli	a2,a2,0x1
  a4:	0606                	slli	a2,a2,0x1
  a6:	0606                	slli	a2,a2,0x1
  a8:	4606                	lw	a2,64(sp)
  aa:	6666                	flw	fa2,88(sp)
  ac:	2626                	fld	fa2,72(sp)
  ae:	0606                	slli	a2,a2,0x1
  b0:	0606                	slli	a2,a2,0x1
  b2:	0606                	slli	a2,a2,0x1
  b4:	0606                	slli	a2,a2,0x1
  b6:	6646                	flw	fa2,80(sp)
  b8:	2666                	fld	fa2,88(sp)
  ba:	0606                	slli	a2,a2,0x1
  bc:	0606                	slli	a2,a2,0x1
  be:	0606                	slli	a2,a2,0x1
  c0:	0606                	slli	a2,a2,0x1
  c2:	6606                	flw	fa2,64(sp)
  c4:	6666                	flw	fa2,88(sp)
  c6:	0606                	slli	a2,a2,0x1
  c8:	0606                	slli	a2,a2,0x1
  ca:	0606                	slli	a2,a2,0x1
  cc:	0606                	slli	a2,a2,0x1
  ce:	0606                	slli	a2,a2,0x1
  d0:	6666                	flw	fa2,88(sp)
  d2:	0606                	slli	a2,a2,0x1
  d4:	0606                	slli	a2,a2,0x1
  d6:	0606                	slli	a2,a2,0x1
  d8:	0606                	slli	a2,a2,0x1
  da:	0606                	slli	a2,a2,0x1
  dc:	6666                	flw	fa2,88(sp)
  de:	0606                	slli	a2,a2,0x1
  e0:	0606                	slli	a2,a2,0x1
  e2:	0606                	slli	a2,a2,0x1
  e4:	0606                	slli	a2,a2,0x1
  e6:	0606                	slli	a2,a2,0x1
  e8:	4646                	lw	a2,80(sp)
  ea:	0606                	slli	a2,a2,0x1
  ec:	0606                	slli	a2,a2,0x1
  ee:	0606                	slli	a2,a2,0x1
  f0:	0606                	slli	a2,a2,0x1
  f2:	0606                	slli	a2,a2,0x1
  f4:	0046                	c.slli	zero,0x11
	...

Disassembly of section .bss:

000000f8 <flag-0x8>:
	...

00000100 <flag>:
	...

Disassembly of section .riscv.attributes:

00000000 <.riscv.attributes>:
   0:	1f41                	addi	t5,t5,-16
   2:	0000                	unimp
   4:	7200                	flw	fs0,32(a2)
   6:	7369                	lui	t1,0xffffa
   8:	01007663          	bgeu	zero,a6,14 <config_stream+0x14>
   c:	0015                	c.nop	5
   e:	0000                	unimp
  10:	1004                	addi	s1,sp,32
  12:	7205                	lui	tp,0xfffe1
  14:	3376                	fld	ft6,376(sp)
  16:	6932                	flw	fs2,12(sp)
  18:	7032                	flw	ft0,44(sp)
  1a:	0030                	addi	a2,sp,8
  1c:	0108                	addi	a0,sp,128
  1e:	0b0a                	slli	s6,s6,0x2

Disassembly of section .comment:

00000000 <.comment>:
   0:	3a434347          	fmsub.d	ft6,ft6,ft4,ft7,rmm
   4:	2820                	fld	fs0,80(s0)
   6:	29554e47          	fmsub.s	ft8,fa0,fs5,ft5,rmm
   a:	3120                	fld	fs0,96(a0)
   c:	2e31                	jal	328 <_ebss+0x220>
   e:	2e31                	jal	32a <_ebss+0x222>
  10:	0030                	addi	a2,sp,8
